target datalayout = "e-m:e-p270:32:32-p271:32:32-p272:64:64-i64:64-i128:128-f80:128-n8:16:32:64-S128"
target triple = "x86_64-pc-linux-gnu"

%class.InterfaceSortFilterModel = type { %class.QSortFilterProxyModel, i8, i8, i8, i8, i8, %class.QList, %class.QList.0 }
%class.QSortFilterProxyModel = type { %class.QAbstractProxyModel }
%class.QAbstractProxyModel = type { %class.QAbstractItemModel }
%class.QAbstractItemModel = type { %class.QObject }
%class.QObject = type { ptr, %class.QScopedPointer }
%class.QScopedPointer = type { ptr }
%class.QList = type { %struct.QArrayDataPointer }
%struct.QArrayDataPointer = type { ptr, ptr, i64 }
%class.QList.0 = type { %struct.QArrayDataPointer.3 }
%struct.QArrayDataPointer.3 = type { ptr, ptr, i64 }
%"class.QList<InterfaceTreeColumns>::const_iterator" = type { ptr }

; Function Attrs: mustprogress nounwind uwtable
define linkonce_odr noundef ptr @_ZNK17QArrayDataPointerI20InterfaceTreeColumnsE4dataEv(ptr noundef nonnull align 8 dereferenceable(24) %0) #2 comdat align 2 {
  %2 = alloca ptr, align 8
  store ptr %0, ptr %2, align 8
  %3 = load ptr, ptr %2, align 8
  %4 = getelementptr inbounds %struct.QArrayDataPointer.3, ptr %3, i32 0, i32 1
  %5 = load ptr, ptr %4, align 8
  ret ptr %5
}

; Function Attrs: mustprogress nounwind uwtable
define linkonce_odr noundef ptr @_ZNK17QArrayDataPointerI20InterfaceTreeColumnsE8constEndEv(ptr noundef nonnull align 8 dereferenceable(24) %0) #2 comdat align 2 {
  %2 = alloca ptr, align 8
  store ptr %0, ptr %2, align 8
  %3 = load ptr, ptr %2, align 8
  %4 = call noundef ptr @_ZNK17QArrayDataPointerI20InterfaceTreeColumnsE4dataEv(ptr noundef nonnull align 8 dereferenceable(24) %3) #12
  %5 = getelementptr inbounds %struct.QArrayDataPointer.3, ptr %3, i32 0, i32 2
  %6 = load i64, ptr %5, align 8
  %7 = getelementptr i32, ptr %4, i64 %6
  ret ptr %7
}

; Function Attrs: mustprogress nounwind uwtable
define linkonce_odr void @_ZN5QListI20InterfaceTreeColumnsE14const_iteratorC2EPKS0_(ptr noundef nonnull align 8 dereferenceable(8) %0, ptr noundef %1) unnamed_addr #2 comdat align 2 {
  %3 = alloca ptr, align 8
  %4 = alloca ptr, align 8
  store ptr %0, ptr %3, align 8
  store ptr %1, ptr %4, align 8
  %5 = load ptr, ptr %3, align 8
  %6 = getelementptr inbounds %"class.QList<InterfaceTreeColumns>::const_iterator", ptr %5, i32 0, i32 0
  %7 = load ptr, ptr %4, align 8
  store ptr %7, ptr %6, align 8
  ret void
}

; Function Attrs: mustprogress nounwind uwtable
define linkonce_odr noundef ptr @_ZNK17QArrayDataPointerI20InterfaceTreeColumnsE10constBeginEv(ptr noundef nonnull align 8 dereferenceable(24) %0) #2 comdat align 2 {
  %2 = alloca ptr, align 8
  store ptr %0, ptr %2, align 8
  %3 = load ptr, ptr %2, align 8
  %4 = call noundef ptr @_ZNK17QArrayDataPointerI20InterfaceTreeColumnsE4dataEv(ptr noundef nonnull align 8 dereferenceable(24) %3) #12
  ret ptr %4
}

; Function Attrs: mustprogress nounwind uwtable
define linkonce_odr noundef ptr @_ZNK17QArrayDataPointerI20InterfaceTreeColumnsEptEv(ptr noundef nonnull align 8 dereferenceable(24) %0) #2 comdat align 2 {
  %2 = alloca ptr, align 8
  store ptr %0, ptr %2, align 8
  %3 = load ptr, ptr %2, align 8
  ret ptr %3
}

; Function Attrs: mustprogress nounwind uwtable
define linkonce_odr noundef i64 @_ZNK5QListI20InterfaceTreeColumnsE14const_iteratormiES2_(ptr noundef nonnull align 8 dereferenceable(8) %0, ptr %1) #2 comdat align 2 {
  %3 = alloca %"class.QList<InterfaceTreeColumns>::const_iterator", align 8
  %4 = alloca ptr, align 8
  %5 = getelementptr inbounds %"class.QList<InterfaceTreeColumns>::const_iterator", ptr %3, i32 0, i32 0
  store ptr %1, ptr %5, align 8
  store ptr %0, ptr %4, align 8
  %6 = load ptr, ptr %4, align 8
  %7 = getelementptr inbounds %"class.QList<InterfaceTreeColumns>::const_iterator", ptr %6, i32 0, i32 0
  %8 = load ptr, ptr %7, align 8
  %9 = getelementptr inbounds %"class.QList<InterfaceTreeColumns>::const_iterator", ptr %3, i32 0, i32 0
  %10 = load ptr, ptr %9, align 8
  %11 = ptrtoint ptr %8 to i64
  %12 = ptrtoint ptr %10 to i64
  %13 = sub i64 %11, %12
  %14 = sdiv exact i64 %13, 4
  ret i64 %14
}

; Function Attrs: mustprogress nounwind uwtable
define linkonce_odr noundef nonnull align 4 dereferenceable(4) ptr @_ZNK5QListI20InterfaceTreeColumnsE14const_iteratordeEv(ptr noundef nonnull align 8 dereferenceable(8) %0) #2 comdat align 2 {
  %2 = alloca ptr, align 8
  store ptr %0, ptr %2, align 8
  %3 = load ptr, ptr %2, align 8
  %4 = getelementptr inbounds %"class.QList<InterfaceTreeColumns>::const_iterator", ptr %3, i32 0, i32 0
  %5 = load ptr, ptr %4, align 8
  ret ptr %5
}

; Function Attrs: mustprogress nounwind uwtable
define linkonce_odr noundef zeroext i1 @_ZNK5QListI20InterfaceTreeColumnsE14const_iteratorneES2_(ptr noundef nonnull align 8 dereferenceable(8) %0, ptr %1) #2 comdat align 2 {
  %3 = alloca %"class.QList<InterfaceTreeColumns>::const_iterator", align 8
  %4 = alloca ptr, align 8
  %5 = getelementptr inbounds %"class.QList<InterfaceTreeColumns>::const_iterator", ptr %3, i32 0, i32 0
  store ptr %1, ptr %5, align 8
  store ptr %0, ptr %4, align 8
  %6 = load ptr, ptr %4, align 8
  %7 = getelementptr inbounds %"class.QList<InterfaceTreeColumns>::const_iterator", ptr %6, i32 0, i32 0
  %8 = load ptr, ptr %7, align 8
  %9 = getelementptr inbounds %"class.QList<InterfaceTreeColumns>::const_iterator", ptr %3, i32 0, i32 0
  %10 = load ptr, ptr %9, align 8
  %11 = icmp ne ptr %8, %10
  ret i1 %11
}

; Function Attrs: mustprogress nounwind uwtable
define linkonce_odr noundef nonnull align 8 dereferenceable(8) ptr @_ZN5QListI20InterfaceTreeColumnsE14const_iteratorppEv(ptr noundef nonnull align 8 dereferenceable(8) %0) #2 comdat align 2 {
  %2 = alloca ptr, align 8
  store ptr %0, ptr %2, align 8
  %3 = load ptr, ptr %2, align 8
  %4 = getelementptr inbounds %"class.QList<InterfaceTreeColumns>::const_iterator", ptr %3, i32 0, i32 0
  %5 = load ptr, ptr %4, align 8
  %6 = getelementptr i32, ptr %5, i32 1
  store ptr %6, ptr %4, align 8
  ret ptr %3
}

; Function Attrs: mustprogress nounwind uwtable
define linkonce_odr ptr @_ZNK5QListI20InterfaceTreeColumnsE3endEv(ptr noundef nonnull align 8 dereferenceable(24) %0) #2 comdat align 2 personality ptr @__gxx_personality_v0 {
  %2 = alloca %"class.QList<InterfaceTreeColumns>::const_iterator", align 8
  %3 = alloca ptr, align 8
  store ptr %0, ptr %3, align 8
  %4 = load ptr, ptr %3, align 8
  %5 = getelementptr inbounds %class.QList.0, ptr %4, i32 0, i32 0
  %6 = call noundef ptr @_ZNK17QArrayDataPointerI20InterfaceTreeColumnsEptEv(ptr noundef nonnull align 8 dereferenceable(24) %5) #12
  %7 = call noundef ptr @_ZNK17QArrayDataPointerI20InterfaceTreeColumnsE8constEndEv(ptr noundef nonnull align 8 dereferenceable(24) %6) #12
  invoke void @_ZN5QListI20InterfaceTreeColumnsE14const_iteratorC2EPKS0_(ptr noundef nonnull align 8 dereferenceable(8) %2, ptr noundef %7)
          to label %8 unwind label %11

8:                                                ; preds = %1
  %9 = getelementptr inbounds %"class.QList<InterfaceTreeColumns>::const_iterator", ptr %2, i32 0, i32 0
  %10 = load ptr, ptr %9, align 8
  ret ptr %10

11:                                               ; preds = %1
  %12 = landingpad { ptr, i32 }
          catch ptr null
  %13 = extractvalue { ptr, i32 } %12, 0
  call void @__clang_call_terminate(ptr %13) #15
  unreachable
}

; Function Attrs: mustprogress uwtable
define linkonce_odr ptr @_ZNK5QListI20InterfaceTreeColumnsE14const_iteratormiIiEENSt9enable_ifIXsr3stdE13is_integral_vIT_EES2_E4typeES5_(ptr noundef nonnull align 8 dereferenceable(8) %0, i32 noundef %1) #0 comdat align 2 {
  %3 = alloca %"class.QList<InterfaceTreeColumns>::const_iterator", align 8
  %4 = alloca ptr, align 8
  %5 = alloca i32, align 4
  store ptr %0, ptr %4, align 8
  store i32 %1, ptr %5, align 4
  %6 = load ptr, ptr %4, align 8
  %7 = getelementptr inbounds %"class.QList<InterfaceTreeColumns>::const_iterator", ptr %6, i32 0, i32 0
  %8 = load ptr, ptr %7, align 8
  %9 = load i32, ptr %5, align 4
  %10 = sext i32 %9 to i64
  %11 = sub i64 0, %10
  %12 = getelementptr i32, ptr %8, i64 %11
  call void @_ZN5QListI20InterfaceTreeColumnsE14const_iteratorC2EPKS0_(ptr noundef nonnull align 8 dereferenceable(8) %3, ptr noundef %12)
  %13 = getelementptr inbounds %"class.QList<InterfaceTreeColumns>::const_iterator", ptr %3, i32 0, i32 0
  %14 = load ptr, ptr %13, align 8
  ret ptr %14
}

; Function Attrs: mustprogress uwtable
define linkonce_odr ptr @_ZNK5QListI20InterfaceTreeColumnsE14const_iteratorplIxEENSt9enable_ifIXsr3stdE13is_integral_vIT_EES2_E4typeES5_(ptr noundef nonnull align 8 dereferenceable(8) %0, i64 noundef %1) #0 comdat align 2 {
  %3 = alloca %"class.QList<InterfaceTreeColumns>::const_iterator", align 8
  %4 = alloca ptr, align 8
  %5 = alloca i64, align 8
  store ptr %0, ptr %4, align 8
  store i64 %1, ptr %5, align 8
  %6 = load ptr, ptr %4, align 8
  %7 = getelementptr inbounds %"class.QList<InterfaceTreeColumns>::const_iterator", ptr %6, i32 0, i32 0
  %8 = load ptr, ptr %7, align 8
  %9 = load i64, ptr %5, align 8
  %10 = getelementptr i32, ptr %8, i64 %9
  call void @_ZN5QListI20InterfaceTreeColumnsE14const_iteratorC2EPKS0_(ptr noundef nonnull align 8 dereferenceable(8) %3, ptr noundef %10)
  %11 = getelementptr inbounds %"class.QList<InterfaceTreeColumns>::const_iterator", ptr %3, i32 0, i32 0
  %12 = load ptr, ptr %11, align 8
  ret ptr %12
}

; Function Attrs: mustprogress nounwind uwtable
define linkonce_odr ptr @_ZNK5QListI20InterfaceTreeColumnsE5beginEv(ptr noundef nonnull align 8 dereferenceable(24) %0) #2 comdat align 2 personality ptr @__gxx_personality_v0 {
  %2 = alloca %"class.QList<InterfaceTreeColumns>::const_iterator", align 8
  %3 = alloca ptr, align 8
  store ptr %0, ptr %3, align 8
  %4 = load ptr, ptr %3, align 8
  %5 = getelementptr inbounds %class.QList.0, ptr %4, i32 0, i32 0
  %6 = call noundef ptr @_ZNK17QArrayDataPointerI20InterfaceTreeColumnsEptEv(ptr noundef nonnull align 8 dereferenceable(24) %5) #12
  %7 = call noundef ptr @_ZNK17QArrayDataPointerI20InterfaceTreeColumnsE10constBeginEv(ptr noundef nonnull align 8 dereferenceable(24) %6) #12
  invoke void @_ZN5QListI20InterfaceTreeColumnsE14const_iteratorC2EPKS0_(ptr noundef nonnull align 8 dereferenceable(8) %2, ptr noundef %7)
          to label %8 unwind label %11

8:                                                ; preds = %1
  %9 = getelementptr inbounds %"class.QList<InterfaceTreeColumns>::const_iterator", ptr %2, i32 0, i32 0
  %10 = load ptr, ptr %9, align 8
  ret ptr %10

11:                                               ; preds = %1
  %12 = landingpad { ptr, i32 }
          catch ptr null
  %13 = extractvalue { ptr, i32 } %12, 0
  call void @__clang_call_terminate(ptr %13) #15
  unreachable
}

; Function Attrs: mustprogress nounwind uwtable
define linkonce_odr noundef nonnull align 8 dereferenceable(8) ptr @_Z4qMaxIxERKT_S2_S2_(ptr noundef nonnull align 8 dereferenceable(8) %0, ptr noundef nonnull align 8 dereferenceable(8) %1) #2 comdat {
  %3 = alloca ptr, align 8
  %4 = alloca ptr, align 8
  store ptr %0, ptr %3, align 8
  store ptr %1, ptr %4, align 8
  %5 = load ptr, ptr %3, align 8
  %6 = load i64, ptr %5, align 8
  %7 = load ptr, ptr %4, align 8
  %8 = load i64, ptr %7, align 8
  %9 = icmp slt i64 %6, %8
  br i1 %9, label %10, label %12

10:                                               ; preds = %2
  %11 = load ptr, ptr %4, align 8
  br label %14

12:                                               ; preds = %2
  %13 = load ptr, ptr %3, align 8
  br label %14

14:                                               ; preds = %12, %10
  %15 = phi ptr [ %11, %10 ], [ %13, %12 ]
  ret ptr %15
}

; Function Attrs: mustprogress nounwind uwtable
define linkonce_odr noundef i64 @_ZNK5QListI20InterfaceTreeColumnsE4sizeEv(ptr noundef nonnull align 8 dereferenceable(24) %0) #2 comdat align 2 {
  %2 = alloca ptr, align 8
  store ptr %0, ptr %2, align 8
  %3 = load ptr, ptr %2, align 8
  %4 = getelementptr inbounds %class.QList.0, ptr %3, i32 0, i32 0
  %5 = call noundef ptr @_ZNK17QArrayDataPointerI20InterfaceTreeColumnsEptEv(ptr noundef nonnull align 8 dereferenceable(24) %4) #12
  %6 = getelementptr inbounds %struct.QArrayDataPointer.3, ptr %5, i32 0, i32 2
  %7 = load i64, ptr %6, align 8
  ret i64 %7
}

; Function Attrs: mustprogress nounwind uwtable
define linkonce_odr noundef i64 @_ZN9QtPrivate7indexOfI20InterfaceTreeColumnsS1_EExRK5QListIT_ERKT0_x(ptr noundef nonnull align 8 dereferenceable(24) %0, ptr noundef nonnull align 4 dereferenceable(4) %1, i64 noundef %2) #2 comdat personality ptr @__gxx_personality_v0 {
  %4 = alloca i64, align 8
  %5 = alloca ptr, align 8
  %6 = alloca ptr, align 8
  %7 = alloca i64, align 8
  %8 = alloca i64, align 8
  %9 = alloca i64, align 8
  %10 = alloca %"class.QList<InterfaceTreeColumns>::const_iterator", align 8
  %11 = alloca %"class.QList<InterfaceTreeColumns>::const_iterator", align 8
  %12 = alloca %"class.QList<InterfaceTreeColumns>::const_iterator", align 8
  %13 = alloca %"class.QList<InterfaceTreeColumns>::const_iterator", align 8
  %14 = alloca %"class.QList<InterfaceTreeColumns>::const_iterator", align 8
  %15 = alloca %"class.QList<InterfaceTreeColumns>::const_iterator", align 8
  store ptr %0, ptr %5, align 8
  store ptr %1, ptr %6, align 8
  store i64 %2, ptr %7, align 8
  %16 = load i64, ptr %7, align 8
  %17 = icmp slt i64 %16, 0
  br i1 %17, label %18, label %25

18:                                               ; preds = %3
  %19 = load i64, ptr %7, align 8
  %20 = load ptr, ptr %5, align 8
  %21 = call noundef i64 @_ZNK5QListI20InterfaceTreeColumnsE4sizeEv(ptr noundef nonnull align 8 dereferenceable(24) %20) #12
  %22 = add i64 %19, %21
  store i64 %22, ptr %8, align 8
  store i64 0, ptr %9, align 8
  %23 = call noundef nonnull align 8 dereferenceable(8) ptr @_Z4qMaxIxERKT_S2_S2_(ptr noundef nonnull align 8 dereferenceable(8) %8, ptr noundef nonnull align 8 dereferenceable(8) %9)
  %24 = load i64, ptr %23, align 8
  store i64 %24, ptr %7, align 8
  br label %25

25:                                               ; preds = %18, %3
  %26 = load i64, ptr %7, align 8
  %27 = load ptr, ptr %5, align 8
  %28 = call noundef i64 @_ZNK5QListI20InterfaceTreeColumnsE4sizeEv(ptr noundef nonnull align 8 dereferenceable(24) %27) #12
  %29 = icmp slt i64 %26, %28
  br i1 %29, label %30, label %68

30:                                               ; preds = %25
  %31 = load ptr, ptr %5, align 8
  %32 = call ptr @_ZNK5QListI20InterfaceTreeColumnsE5beginEv(ptr noundef nonnull align 8 dereferenceable(24) %31) #12
  %33 = getelementptr inbounds %"class.QList<InterfaceTreeColumns>::const_iterator", ptr %12, i32 0, i32 0
  store ptr %32, ptr %33, align 8
  %34 = load i64, ptr %7, align 8
  %35 = invoke ptr @_ZNK5QListI20InterfaceTreeColumnsE14const_iteratorplIxEENSt9enable_ifIXsr3stdE13is_integral_vIT_EES2_E4typeES5_(ptr noundef nonnull align 8 dereferenceable(8) %12, i64 noundef %34)
          to label %36 unwind label %71

36:                                               ; preds = %30
  %37 = getelementptr inbounds %"class.QList<InterfaceTreeColumns>::const_iterator", ptr %11, i32 0, i32 0
  store ptr %35, ptr %37, align 8
  %38 = invoke ptr @_ZNK5QListI20InterfaceTreeColumnsE14const_iteratormiIiEENSt9enable_ifIXsr3stdE13is_integral_vIT_EES2_E4typeES5_(ptr noundef nonnull align 8 dereferenceable(8) %11, i32 noundef 1)
          to label %39 unwind label %71

39:                                               ; preds = %36
  %40 = getelementptr inbounds %"class.QList<InterfaceTreeColumns>::const_iterator", ptr %10, i32 0, i32 0
  store ptr %38, ptr %40, align 8
  %41 = load ptr, ptr %5, align 8
  %42 = call ptr @_ZNK5QListI20InterfaceTreeColumnsE3endEv(ptr noundef nonnull align 8 dereferenceable(24) %41) #12
  %43 = getelementptr inbounds %"class.QList<InterfaceTreeColumns>::const_iterator", ptr %13, i32 0, i32 0
  store ptr %42, ptr %43, align 8
  br label %44

44:                                               ; preds = %66, %39
  %45 = invoke noundef nonnull align 8 dereferenceable(8) ptr @_ZN5QListI20InterfaceTreeColumnsE14const_iteratorppEv(ptr noundef nonnull align 8 dereferenceable(8) %10)
          to label %46 unwind label %71

46:                                               ; preds = %44
  call void @llvm.memcpy.p0.p0.i64(ptr align 8 %14, ptr align 8 %13, i64 8, i1 false)
  %47 = getelementptr inbounds %"class.QList<InterfaceTreeColumns>::const_iterator", ptr %14, i32 0, i32 0
  %48 = load ptr, ptr %47, align 8
  %49 = invoke noundef zeroext i1 @_ZNK5QListI20InterfaceTreeColumnsE14const_iteratorneES2_(ptr noundef nonnull align 8 dereferenceable(8) %45, ptr %48)
          to label %50 unwind label %71

50:                                               ; preds = %46
  br i1 %49, label %51, label %67

51:                                               ; preds = %50
  %52 = invoke noundef nonnull align 4 dereferenceable(4) ptr @_ZNK5QListI20InterfaceTreeColumnsE14const_iteratordeEv(ptr noundef nonnull align 8 dereferenceable(8) %10)
          to label %53 unwind label %71

53:                                               ; preds = %51
  %54 = load i32, ptr %52, align 4
  %55 = load ptr, ptr %6, align 8
  %56 = load i32, ptr %55, align 4
  %57 = icmp eq i32 %54, %56
  br i1 %57, label %58, label %66

58:                                               ; preds = %53
  %59 = load ptr, ptr %5, align 8
  %60 = call ptr @_ZNK5QListI20InterfaceTreeColumnsE5beginEv(ptr noundef nonnull align 8 dereferenceable(24) %59) #12
  %61 = getelementptr inbounds %"class.QList<InterfaceTreeColumns>::const_iterator", ptr %15, i32 0, i32 0
  store ptr %60, ptr %61, align 8
  %62 = getelementptr inbounds %"class.QList<InterfaceTreeColumns>::const_iterator", ptr %15, i32 0, i32 0
  %63 = load ptr, ptr %62, align 8
  %64 = invoke noundef i64 @_ZNK5QListI20InterfaceTreeColumnsE14const_iteratormiES2_(ptr noundef nonnull align 8 dereferenceable(8) %10, ptr %63)
          to label %65 unwind label %71

65:                                               ; preds = %58
  store i64 %64, ptr %4, align 8
  br label %69

66:                                               ; preds = %53
  br label %44, !llvm.loop !14

67:                                               ; preds = %50
  br label %68

68:                                               ; preds = %67, %25
  store i64 -1, ptr %4, align 8
  br label %69

69:                                               ; preds = %68, %65
  %70 = load i64, ptr %4, align 8
  ret i64 %70

71:                                               ; preds = %58, %51, %46, %44, %36, %30
  %72 = landingpad { ptr, i32 }
          catch ptr null
  %73 = extractvalue { ptr, i32 } %72, 0
  call void @__clang_call_terminate(ptr %73) #15
  unreachable
}

; Function Attrs: noreturn nounwind uwtable
define linkonce_odr hidden void @__clang_call_terminate(ptr noundef %0) #5 comdat {
  %2 = call ptr @__cxa_begin_catch(ptr %0) #12
  call void @_ZSt9terminatev() #15
  unreachable
}

; Function Attrs: mustprogress nounwind uwtable
define linkonce_odr noundef ptr @_ZNK23QListSpecialMethodsBaseI20InterfaceTreeColumnsE4selfEv(ptr noundef nonnull align 1 dereferenceable(1) %0) #2 comdat align 2 {
  %2 = alloca ptr, align 8
  store ptr %0, ptr %2, align 8
  %3 = load ptr, ptr %2, align 8
  ret ptr %3
}

; Function Attrs: mustprogress nounwind uwtable
define linkonce_odr noundef i64 @_ZNK23QListSpecialMethodsBaseI20InterfaceTreeColumnsE7indexOfIS0_EExRKT_x(ptr noundef nonnull align 1 dereferenceable(1) %0, ptr noundef nonnull align 4 dereferenceable(4) %1, i64 noundef %2) #2 comdat align 2 {
  %4 = alloca ptr, align 8
  %5 = alloca ptr, align 8
  %6 = alloca i64, align 8
  store ptr %0, ptr %4, align 8
  store ptr %1, ptr %5, align 8
  store i64 %2, ptr %6, align 8
  %7 = load ptr, ptr %4, align 8
  %8 = call noundef ptr @_ZNK23QListSpecialMethodsBaseI20InterfaceTreeColumnsE4selfEv(ptr noundef nonnull align 1 dereferenceable(1) %7)
  %9 = load ptr, ptr %5, align 8
  %10 = load i64, ptr %6, align 8
  %11 = call noundef i64 @_ZN9QtPrivate7indexOfI20InterfaceTreeColumnsS1_EExRK5QListIT_ERKT0_x(ptr noundef nonnull align 8 dereferenceable(24) %8, ptr noundef nonnull align 4 dereferenceable(4) %9, i64 noundef %10) #12
  ret i64 %11
}

; Function Attrs: mustprogress nounwind uwtable
define linkonce_odr noundef zeroext i1 @_ZNK23QListSpecialMethodsBaseI20InterfaceTreeColumnsE8containsIS0_EEbRKT_(ptr noundef nonnull align 1 dereferenceable(1) %0, ptr noundef nonnull align 4 dereferenceable(4) %1) #2 comdat align 2 personality ptr @__gxx_personality_v0 {
  %3 = alloca ptr, align 8
  %4 = alloca ptr, align 8
  store ptr %0, ptr %3, align 8
  store ptr %1, ptr %4, align 8
  %5 = load ptr, ptr %3, align 8
  %6 = invoke noundef ptr @_ZNK23QListSpecialMethodsBaseI20InterfaceTreeColumnsE4selfEv(ptr noundef nonnull align 1 dereferenceable(1) %5)
          to label %7 unwind label %11

7:                                                ; preds = %2
  %8 = load ptr, ptr %4, align 8
  %9 = call noundef i64 @_ZNK23QListSpecialMethodsBaseI20InterfaceTreeColumnsE7indexOfIS0_EExRKT_x(ptr noundef nonnull align 1 dereferenceable(1) %6, ptr noundef nonnull align 4 dereferenceable(4) %8, i64 noundef 0) #12
  %10 = icmp ne i64 %9, -1
  ret i1 %10

11:                                               ; preds = %2
  %12 = landingpad { ptr, i32 }
          catch ptr null
  %13 = extractvalue { ptr, i32 } %12, 0
  call void @__clang_call_terminate(ptr %13) #15
  unreachable
}

; Function Attrs: mustprogress nounwind uwtable
define noundef i32 @_ZN24InterfaceSortFilterModel17mapSourceToColumnE20InterfaceTreeColumns(ptr noundef nonnull align 8 dereferenceable(72) %0, i32 noundef %1) #2 align 2 {
  %3 = alloca i32, align 4
  %4 = alloca ptr, align 8
  %5 = alloca i32, align 4
  store ptr %0, ptr %4, align 8
  store i32 %1, ptr %5, align 4
  %6 = load ptr, ptr %4, align 8
  %7 = getelementptr inbounds %class.InterfaceSortFilterModel, ptr %6, i32 0, i32 7
  %8 = call noundef zeroext i1 @_ZNK23QListSpecialMethodsBaseI20InterfaceTreeColumnsE8containsIS0_EEbRKT_(ptr noundef nonnull align 1 dereferenceable(1) %7, ptr noundef nonnull align 4 dereferenceable(4) %5) #12
  br i1 %8, label %10, label %9

9:                                                ; preds = %2
  store i32 -1, ptr %3, align 4
  br label %14

10:                                               ; preds = %2
  %11 = getelementptr inbounds %class.InterfaceSortFilterModel, ptr %6, i32 0, i32 7
  %12 = call noundef i64 @_ZNK23QListSpecialMethodsBaseI20InterfaceTreeColumnsE7indexOfIS0_EExRKT_x(ptr noundef nonnull align 1 dereferenceable(1) %11, ptr noundef nonnull align 4 dereferenceable(4) %5, i64 noundef 0) #12
  %13 = trunc i64 %12 to i32
  store i32 %13, ptr %3, align 4
  br label %14

14:                                               ; preds = %10, %9
  %15 = load i32, ptr %3, align 4
  ret i32 %15
}