; Function Attrs: mustprogress nofree norecurse nosync nounwind willreturn memory(read, inaccessiblemem: none) uwtable
define noundef i32 @_ZN24InterfaceSortFilterModel17mapSourceToColumnE20InterfaceTreeColumns(ptr nocapture noundef nonnull readonly align 8 dereferenceable(72) %0, i32 noundef %1) local_unnamed_addr #5 align 2 personality ptr @__gxx_personality_v0 {
  %3 = getelementptr inbounds i8, ptr %0, i64 64
  %4 = load i64, ptr %3, align 8
  %5 = icmp sgt i64 %4, 0
  br i1 %5, label %6, label %_ZNK23QListSpecialMethodsBaseI20InterfaceTreeColumnsE8containsIS0_EEbRKT_.exit.thread

6:                                                ; preds = %2
  %7 = getelementptr inbounds i8, ptr %0, i64 56
  %8 = load ptr, ptr %7, align 8
  %9 = getelementptr i8, ptr %8, i64 -4
  %10 = getelementptr i32, ptr %8, i64 %4
  br label %11

11:                                               ; preds = %13, %6
  %.sroa.015.0.i.i.i = phi ptr [ %9, %6 ], [ %12, %13 ]
  %12 = getelementptr i8, ptr %.sroa.015.0.i.i.i, i64 4
  %.not.i.i.i = icmp eq ptr %12, %10
  br i1 %.not.i.i.i, label %_ZNK23QListSpecialMethodsBaseI20InterfaceTreeColumnsE8containsIS0_EEbRKT_.exit.thread, label %13

13:                                               ; preds = %11
  %14 = load i32, ptr %12, align 4
  %15 = icmp eq i32 %14, %1
  br i1 %15, label %_ZNK23QListSpecialMethodsBaseI20InterfaceTreeColumnsE8containsIS0_EEbRKT_.exit, label %11, !llvm.loop !14

_ZNK23QListSpecialMethodsBaseI20InterfaceTreeColumnsE8containsIS0_EEbRKT_.exit: ; preds = %13
  %16 = ptrtoint ptr %12 to i64
  %17 = ptrtoint ptr %8 to i64
  %18 = sub i64 %16, %17
  %.not = icmp eq i64 %18, -4
  br i1 %.not, label %_ZNK23QListSpecialMethodsBaseI20InterfaceTreeColumnsE8containsIS0_EEbRKT_.exit.thread, label %.preheader

.preheader:                                       ; preds = %_ZNK23QListSpecialMethodsBaseI20InterfaceTreeColumnsE8containsIS0_EEbRKT_.exit, %20
  %.sroa.015.0.i.i = phi ptr [ %19, %20 ], [ %9, %_ZNK23QListSpecialMethodsBaseI20InterfaceTreeColumnsE8containsIS0_EEbRKT_.exit ]
  %19 = getelementptr i8, ptr %.sroa.015.0.i.i, i64 4
  %.not.i.i = icmp eq ptr %19, %10
  br i1 %.not.i.i, label %_ZNK23QListSpecialMethodsBaseI20InterfaceTreeColumnsE8containsIS0_EEbRKT_.exit.thread, label %20

20:                                               ; preds = %.preheader
  %21 = load i32, ptr %19, align 4
  %22 = icmp eq i32 %21, %1
  br i1 %22, label %23, label %.preheader, !llvm.loop !14

23:                                               ; preds = %20
  %24 = ptrtoint ptr %19 to i64
  %25 = sub i64 %24, %17
  %26 = lshr exact i64 %25, 2
  %27 = trunc i64 %26 to i32
  br label %_ZNK23QListSpecialMethodsBaseI20InterfaceTreeColumnsE8containsIS0_EEbRKT_.exit.thread

_ZNK23QListSpecialMethodsBaseI20InterfaceTreeColumnsE8containsIS0_EEbRKT_.exit.thread: ; preds = %11, %.preheader, %_ZNK23QListSpecialMethodsBaseI20InterfaceTreeColumnsE8containsIS0_EEbRKT_.exit, %23, %2
  %.0 = phi i32 [ -1, %_ZNK23QListSpecialMethodsBaseI20InterfaceTreeColumnsE8containsIS0_EEbRKT_.exit ], [ -1, %2 ], [ %27, %23 ], [ -1, %.preheader ], [ -1, %11 ]
  ret i32 %.0
}